; Function Attrs: mustprogress uwtable
define dso_local void @_ZNK4Luau9DiffError53checkNonMissingPropertyLeavesHaveNulloptTablePropertyEv(ptr nocapture noundef nonnull readonly align 8 dereferenceable(272) %0) local_unnamed_addr #1 align 2 personality ptr @__gxx_personality_v0 {
  %2 = alloca %"class.std::__cxx11::basic_string", align 8
  %3 = alloca %"class.std::allocator", align 1
  %4 = getelementptr inbounds i8, ptr %0, i64 80
  %5 = load i8, ptr %4, align 8
  %6 = trunc i8 %5 to i1
  br i1 %6, label %11, label %7

7:                                                ; preds = %1
  %8 = getelementptr inbounds i8, ptr %0, i64 168
  %9 = load i8, ptr %8, align 8
  %10 = trunc i8 %9 to i1
  br i1 %10, label %11, label %19

11:                                               ; preds = %7, %1
  %12 = tail call ptr @__cxa_allocate_exception(i64 104) #22
  call void @_ZNSaIcEC1Ev(ptr noundef nonnull align 1 dereferenceable(1) %3) #22
  invoke void @_ZNSt7__cxx1112basic_stringIcSt11char_traitsIcESaIcEEC2IS3_EEPKcRKS3_(ptr noundef nonnull align 8 dereferenceable(32) %2, ptr noundef nonnull @.str.81, ptr noundef nonnull align 1 dereferenceable(1) %3)
          to label %13 unwind label %.thread

13:                                               ; preds = %11
  invoke void @_ZN4Luau21InternalCompilerErrorC2ERKNSt7__cxx1112basic_stringIcSt11char_traitsIcESaIcEEE(ptr noundef nonnull align 8 dereferenceable(100) %12, ptr noundef nonnull align 8 dereferenceable(32) %2)
          to label %14 unwind label %16

14:                                               ; preds = %13
  invoke void @__cxa_throw(ptr nonnull %12, ptr nonnull @_ZTIN4Luau21InternalCompilerErrorE, ptr nonnull @_ZN4Luau21InternalCompilerErrorD2Ev) #23
          to label %21 unwind label %16

.thread:                                          ; preds = %11
  %15 = landingpad { ptr, i32 }
          cleanup
  call void @_ZNSaIcED1Ev(ptr noundef nonnull align 1 dereferenceable(1) %3) #22
  br label %18

16:                                               ; preds = %13, %14
  %.0 = phi i1 [ false, %14 ], [ true, %13 ]
  %17 = landingpad { ptr, i32 }
          cleanup
  call void @_ZNSt7__cxx1112basic_stringIcSt11char_traitsIcESaIcEED1Ev(ptr noundef nonnull align 8 dereferenceable(32) %2) #22
  call void @_ZNSaIcED1Ev(ptr noundef nonnull align 1 dereferenceable(1) %3) #22
  br i1 %.0, label %18, label %20

18:                                               ; preds = %.thread, %16
  %.pn9 = phi { ptr, i32 } [ %15, %.thread ], [ %17, %16 ]
  call void @__cxa_free_exception(ptr %12) #22
  br label %20

19:                                               ; preds = %7
  ret void

20:                                               ; preds = %16, %18
  %.pn8 = phi { ptr, i32 } [ %17, %16 ], [ %.pn9, %18 ]
  resume { ptr, i32 } %.pn8

21:                                               ; preds = %14
  unreachable
}